#include <math.h>
#include <stdio.h>
#include <stdlib.h>
#include <string.h>

int main()
{
    int n=0,k=0,i=0,j=0;
    int a[1002]={0};
    int ans=0;
    scanf("%d%d\n",&n,&k);
    for(i=0;i<n;i++)
    {
        scanf("%d",&a[i]);
    }
    for(i=0;i<n-1;i++)
    {
        for(j=i+1;j<n;j++)
        {
            if(a[i]+a[j]==k)
            {
                ans=1;
                break;
            }
        }
        if(ans==1)
            break;
    }
    if(ans==1)  
		printf("yes\n");
    else 
		printf("no\n");
    return 0;
}